target datalayout = "e-m:e-p270:32:32-p271:32:32-p272:64:64-i64:64-i128:128-f80:128-n8:16:32:64-S128"
target triple = "x86_64-pc-linux-gnu"

%struct.expert_field = type { i32, i32 }

@.str.238 = private unnamed_addr constant [20 x i8] c"an unsigned integer\00", align 1
@ei_type_length_mismatch_error = internal global %struct.expert_field zeroinitializer, align 4
@.str.254 = private unnamed_addr constant [34 x i8] c"Trying to fetch %s with length %d\00", align 1
@ei_type_length_mismatch_warn = internal global %struct.expert_field zeroinitializer, align 4

; Function Attrs: null_pointer_is_valid sspstrong uwtable
define internal void @report_type_length_mismatch(ptr noundef %0, ptr noundef %1, i32 noundef %2, i1 noundef zeroext %3) #0 {
  %5 = alloca ptr, align 8
  %6 = alloca ptr, align 8
  %7 = alloca i32, align 4
  %8 = alloca i8, align 1
  store ptr %0, ptr %5, align 8
  store ptr %1, ptr %6, align 8
  store i32 %2, ptr %7, align 4
  %9 = zext i1 %3 to i8
  store i8 %9, ptr %8, align 1
  %10 = load i8, ptr %8, align 1, !range !10, !noundef !11
  %11 = trunc i8 %10 to i1
  br i1 %11, label %12, label %17

12:                                               ; preds = %4
  %13 = load ptr, ptr %5, align 8
  %14 = load ptr, ptr %6, align 8
  %15 = load i32, ptr %7, align 4
  %16 = call ptr (ptr, ptr, ptr, ptr, ...) @expert_add_info_format(ptr noundef null, ptr noundef %13, ptr noundef @ei_type_length_mismatch_error, ptr noundef @.str.254, ptr noundef %14, i32 noundef %15)
  br label %22

17:                                               ; preds = %4
  %18 = load ptr, ptr %5, align 8
  %19 = load ptr, ptr %6, align 8
  %20 = load i32, ptr %7, align 4
  %21 = call ptr (ptr, ptr, ptr, ptr, ...) @expert_add_info_format(ptr noundef null, ptr noundef %18, ptr noundef @ei_type_length_mismatch_warn, ptr noundef @.str.254, ptr noundef %19, i32 noundef %20)
  br label %22

22:                                               ; preds = %17, %12
  %23 = load i8, ptr %8, align 1, !range !10, !noundef !11
  %24 = trunc i8 %23 to i1
  br i1 %24, label %25, label %26

25:                                               ; preds = %22
  call void @except_throw(i64 noundef 1, i64 noundef 3, ptr noundef null) #27
  unreachable

26:                                               ; preds = %22
  ret void
}

; Function Attrs: null_pointer_is_valid sspstrong uwtable
define internal i32 @get_uint_value(ptr noundef %0, ptr noundef %1, i32 noundef %2, i32 noundef %3, i32 noundef %4) #0 {
  %6 = alloca ptr, align 8
  %7 = alloca ptr, align 8
  %8 = alloca i32, align 4
  %9 = alloca i32, align 4
  %10 = alloca i32, align 4
  %11 = alloca i32, align 4
  %12 = alloca i8, align 1
  store ptr %0, ptr %6, align 8
  store ptr %1, ptr %7, align 8
  store i32 %2, ptr %8, align 4
  store i32 %3, ptr %9, align 4
  store i32 %4, ptr %10, align 4
  call void @llvm.lifetime.start.p0(i64 4, ptr %11) #24
  call void @llvm.lifetime.start.p0(i64 1, ptr %12) #24
  %13 = load i32, ptr %9, align 4
  switch i32 %13, label %81 [
    i32 1, label %14
    i32 2, label %28
    i32 3, label %53
    i32 4, label %67
  ]

14:                                               ; preds = %5
  %15 = load ptr, ptr %7, align 8
  %16 = load i32, ptr %8, align 4
  %17 = call zeroext i8 @tvb_get_uint8(ptr noundef %15, i32 noundef %16)
  %18 = zext i8 %17 to i32
  store i32 %18, ptr %11, align 4
  %19 = load i32, ptr %10, align 4
  %20 = and i32 %19, 1073741824
  %21 = icmp ne i32 %20, 0
  br i1 %21, label %22, label %27

22:                                               ; preds = %14
  %23 = load i32, ptr %11, align 4
  %24 = icmp eq i32 %23, 255
  br i1 %24, label %25, label %26

25:                                               ; preds = %22
  store i32 0, ptr %11, align 4
  br label %26

26:                                               ; preds = %25, %22
  br label %27

27:                                               ; preds = %26, %14
  br label %104

28:                                               ; preds = %5
  %29 = load i32, ptr %10, align 4
  %30 = and i32 %29, -2147483648
  %31 = icmp ne i32 %30, 0
  br i1 %31, label %32, label %37

32:                                               ; preds = %28
  %33 = load ptr, ptr %7, align 8
  %34 = load i32, ptr %8, align 4
  %35 = call zeroext i16 @tvb_get_letohs(ptr noundef %33, i32 noundef %34)
  %36 = zext i16 %35 to i32
  br label %42

37:                                               ; preds = %28
  %38 = load ptr, ptr %7, align 8
  %39 = load i32, ptr %8, align 4
  %40 = call zeroext i16 @tvb_get_ntohs(ptr noundef %38, i32 noundef %39)
  %41 = zext i16 %40 to i32
  br label %42

42:                                               ; preds = %37, %32
  %43 = phi i32 [ %36, %32 ], [ %41, %37 ]
  store i32 %43, ptr %11, align 4
  %44 = load i32, ptr %10, align 4
  %45 = and i32 %44, 1073741824
  %46 = icmp ne i32 %45, 0
  br i1 %46, label %47, label %52

47:                                               ; preds = %42
  %48 = load i32, ptr %11, align 4
  %49 = icmp eq i32 %48, 65535
  br i1 %49, label %50, label %51

50:                                               ; preds = %47
  store i32 0, ptr %11, align 4
  br label %51

51:                                               ; preds = %50, %47
  br label %52

52:                                               ; preds = %51, %42
  br label %104

53:                                               ; preds = %5
  %54 = load i32, ptr %10, align 4
  %55 = and i32 %54, -2147483648
  %56 = icmp ne i32 %55, 0
  br i1 %56, label %57, label %61

57:                                               ; preds = %53
  %58 = load ptr, ptr %7, align 8
  %59 = load i32, ptr %8, align 4
  %60 = call i32 @tvb_get_letoh24(ptr noundef %58, i32 noundef %59)
  br label %65

61:                                               ; preds = %53
  %62 = load ptr, ptr %7, align 8
  %63 = load i32, ptr %8, align 4
  %64 = call i32 @tvb_get_ntoh24(ptr noundef %62, i32 noundef %63)
  br label %65

65:                                               ; preds = %61, %57
  %66 = phi i32 [ %60, %57 ], [ %64, %61 ]
  store i32 %66, ptr %11, align 4
  br label %104

67:                                               ; preds = %5
  %68 = load i32, ptr %10, align 4
  %69 = and i32 %68, -2147483648
  %70 = icmp ne i32 %69, 0
  br i1 %70, label %71, label %75

71:                                               ; preds = %67
  %72 = load ptr, ptr %7, align 8
  %73 = load i32, ptr %8, align 4
  %74 = call i32 @tvb_get_letohl(ptr noundef %72, i32 noundef %73)
  br label %79

75:                                               ; preds = %67
  %76 = load ptr, ptr %7, align 8
  %77 = load i32, ptr %8, align 4
  %78 = call i32 @tvb_get_ntohl(ptr noundef %76, i32 noundef %77)
  br label %79

79:                                               ; preds = %75, %71
  %80 = phi i32 [ %74, %71 ], [ %78, %75 ]
  store i32 %80, ptr %11, align 4
  br label %104

81:                                               ; preds = %5
  %82 = load i32, ptr %9, align 4
  %83 = icmp slt i32 %82, 1
  br i1 %83, label %84, label %85

84:                                               ; preds = %81
  store i8 1, ptr %12, align 1
  store i32 0, ptr %11, align 4
  br label %99

85:                                               ; preds = %81
  store i8 0, ptr %12, align 1
  %86 = load i32, ptr %10, align 4
  %87 = and i32 %86, -2147483648
  %88 = icmp ne i32 %87, 0
  br i1 %88, label %89, label %93

89:                                               ; preds = %85
  %90 = load ptr, ptr %7, align 8
  %91 = load i32, ptr %8, align 4
  %92 = call i32 @tvb_get_letohl(ptr noundef %90, i32 noundef %91)
  br label %97

93:                                               ; preds = %85
  %94 = load ptr, ptr %7, align 8
  %95 = load i32, ptr %8, align 4
  %96 = call i32 @tvb_get_ntohl(ptr noundef %94, i32 noundef %95)
  br label %97

97:                                               ; preds = %93, %89
  %98 = phi i32 [ %92, %89 ], [ %96, %93 ]
  store i32 %98, ptr %11, align 4
  br label %99

99:                                               ; preds = %97, %84
  %100 = load ptr, ptr %6, align 8
  %101 = load i32, ptr %9, align 4
  %102 = load i8, ptr %12, align 1, !range !10, !noundef !11
  %103 = trunc i8 %102 to i1
  call void @report_type_length_mismatch(ptr noundef %100, ptr noundef @.str.238, i32 noundef %101, i1 noundef zeroext %103)
  br label %104

104:                                              ; preds = %99, %79, %65, %52, %27
  %105 = load i32, ptr %11, align 4
  call void @llvm.lifetime.end.p0(i64 1, ptr %12) #24
  call void @llvm.lifetime.end.p0(i64 4, ptr %11) #24
  ret i32 %105
}