; Function Attrs: null_pointer_is_valid sspstrong uwtable
define internal fastcc i32 @get_uint_value(ptr noundef %0, ptr noundef %1, i32 noundef %2, i32 noundef %3, i32 noundef %4) unnamed_addr #0 {
  switch i32 %3, label %32 [
    i32 1, label %6
    i32 2, label %12
    i32 3, label %22
    i32 4, label %27
  ]

6:                                                ; preds = %5
  %7 = tail call zeroext i8 @tvb_get_uint8(ptr noundef %1, i32 noundef %2)
  %8 = zext i8 %7 to i32
  %9 = and i32 %4, 1073741824
  %.not36 = icmp eq i32 %9, 0
  br i1 %.not36, label %42, label %10

10:                                               ; preds = %6
  %11 = icmp eq i8 %7, -1
  %spec.store.select = select i1 %11, i32 0, i32 %8
  br label %42

12:                                               ; preds = %5
  %.not34 = icmp sgt i32 %4, -1
  br i1 %.not34, label %15, label %13

13:                                               ; preds = %12
  %14 = tail call zeroext i16 @tvb_get_letohs(ptr noundef %1, i32 noundef %2)
  br label %17

15:                                               ; preds = %12
  %16 = tail call zeroext i16 @tvb_get_ntohs(ptr noundef %1, i32 noundef %2)
  br label %17

17:                                               ; preds = %15, %13
  %.in = phi i16 [ %14, %13 ], [ %16, %15 ]
  %18 = zext i16 %.in to i32
  %19 = and i32 %4, 1073741824
  %.not35 = icmp eq i32 %19, 0
  br i1 %.not35, label %42, label %20

20:                                               ; preds = %17
  %21 = icmp eq i16 %.in, -1
  %spec.store.select1 = select i1 %21, i32 0, i32 %18
  br label %42

22:                                               ; preds = %5
  %.not33 = icmp sgt i32 %4, -1
  br i1 %.not33, label %25, label %23

23:                                               ; preds = %22
  %24 = tail call i32 @tvb_get_letoh24(ptr noundef %1, i32 noundef %2)
  br label %42

25:                                               ; preds = %22
  %26 = tail call i32 @tvb_get_ntoh24(ptr noundef %1, i32 noundef %2)
  br label %42

27:                                               ; preds = %5
  %.not = icmp sgt i32 %4, -1
  br i1 %.not, label %30, label %28

28:                                               ; preds = %27
  %29 = tail call i32 @tvb_get_letohl(ptr noundef %1, i32 noundef %2)
  br label %42

30:                                               ; preds = %27
  %31 = tail call i32 @tvb_get_ntohl(ptr noundef %1, i32 noundef %2)
  br label %42

32:                                               ; preds = %5
  %33 = icmp slt i32 %3, 1
  br i1 %33, label %39, label %34

34:                                               ; preds = %32
  %.not37 = icmp sgt i32 %4, -1
  br i1 %.not37, label %37, label %35

35:                                               ; preds = %34
  %36 = tail call i32 @tvb_get_letohl(ptr noundef %1, i32 noundef %2)
  br label %report_type_length_mismatch.exit

37:                                               ; preds = %34
  %38 = tail call i32 @tvb_get_ntohl(ptr noundef %1, i32 noundef %2)
  br label %report_type_length_mismatch.exit

39:                                               ; preds = %32
  %40 = tail call ptr (ptr, ptr, ptr, ptr, ...) @expert_add_info_format(ptr noundef null, ptr noundef %0, ptr noundef nonnull @ei_type_length_mismatch_error, ptr noundef nonnull @.str.254, ptr noundef nonnull @.str.238, i32 noundef %3)
  tail call void @except_throw(i64 noundef 1, i64 noundef 3, ptr noundef null) #37
  unreachable

report_type_length_mismatch.exit:                 ; preds = %35, %37
  %.1.ph = phi i32 [ %38, %37 ], [ %36, %35 ]
  %41 = tail call ptr (ptr, ptr, ptr, ptr, ...) @expert_add_info_format(ptr noundef null, ptr noundef %0, ptr noundef nonnull @ei_type_length_mismatch_warn, ptr noundef nonnull @.str.254, ptr noundef nonnull @.str.238, i32 noundef %3)
  br label %42

42:                                               ; preds = %28, %30, %23, %25, %17, %20, %6, %10, %report_type_length_mismatch.exit
  %.032 = phi i32 [ %.1.ph, %report_type_length_mismatch.exit ], [ %spec.store.select1, %20 ], [ %18, %17 ], [ %spec.store.select, %10 ], [ %8, %6 ], [ %24, %23 ], [ %26, %25 ], [ %29, %28 ], [ %31, %30 ]
  ret i32 %.032
}